; Function Attrs: mustprogress uwtable
define dso_local noundef zeroext i1 @_ZN10btSoftBody7cutLinkEPKNS_4NodeES2_f(ptr noundef nonnull align 8 dereferenceable(2064) %this, ptr noundef %node0, ptr noundef %node1, float noundef %position) local_unnamed_addr #4 align 2 {
entry:
  %m_data.i = getelementptr inbounds i8, ptr %this, i64 944
  %0 = load ptr, ptr %m_data.i, align 8
  %sub.ptr.lhs.cast = ptrtoint ptr %node0 to i64
  %sub.ptr.rhs.cast = ptrtoint ptr %0 to i64
  %sub.ptr.sub = sub i64 %sub.ptr.lhs.cast, %sub.ptr.rhs.cast
  %sub.ptr.div = lshr exact i64 %sub.ptr.sub, 8
  %conv = trunc i64 %sub.ptr.div to i32
  %sub.ptr.lhs.cast4 = ptrtoint ptr %node1 to i64
  %sub.ptr.sub6 = sub i64 %sub.ptr.lhs.cast4, %sub.ptr.rhs.cast
  %sub.ptr.div7 = lshr exact i64 %sub.ptr.sub6, 8
  %conv8 = trunc i64 %sub.ptr.div7 to i32
  %call9 = tail call noundef zeroext i1 @_ZN10btSoftBody7cutLinkEiif(ptr noundef nonnull align 8 dereferenceable(2064) %this, i32 noundef %conv, i32 noundef %conv8, float noundef %position)
  ret i1 %call9
}